; Function Attrs: nounwind uwtable
define void @php_statpage() local_unnamed_addr #0 {
  %1 = tail call ptr @sapi_get_stat() #3
  %2 = load i64, ptr getelementptr inbounds (%struct._php_basic_globals, ptr @basic_globals, i64 0, i32 13), align 8
  %3 = icmp eq i64 %2, -1
  %4 = load i64, ptr getelementptr inbounds (%struct._php_basic_globals, ptr @basic_globals, i64 0, i32 14), align 8
  %5 = icmp eq i64 %4, -1
  %or.cond = select i1 %3, i1 true, i1 %5
  br i1 %or.cond, label %6, label %23

6:                                                ; preds = %0
  %.not = icmp eq ptr %1, null
  br i1 %.not, label %18, label %7

7:                                                ; preds = %6
  %8 = getelementptr inbounds i8, ptr %1, i64 28
  %9 = load i32, ptr %8, align 4
  %10 = zext i32 %9 to i64
  store i64 %10, ptr getelementptr inbounds (%struct._php_basic_globals, ptr @basic_globals, i64 0, i32 13), align 8
  %11 = getelementptr inbounds i8, ptr %1, i64 32
  %12 = load i32, ptr %11, align 8
  %13 = zext i32 %12 to i64
  store i64 %13, ptr getelementptr inbounds (%struct._php_basic_globals, ptr @basic_globals, i64 0, i32 14), align 8
  %14 = getelementptr inbounds i8, ptr %1, i64 8
  %15 = load i64, ptr %14, align 8
  store i64 %15, ptr getelementptr inbounds (%struct._php_basic_globals, ptr @basic_globals, i64 0, i32 15), align 8
  %16 = getelementptr inbounds i8, ptr %1, i64 88
  %17 = load i64, ptr %16, align 8
  store i64 %17, ptr getelementptr inbounds (%struct._php_basic_globals, ptr @basic_globals, i64 0, i32 16), align 8
  br label %23

18:                                               ; preds = %6
  %19 = tail call i32 @getuid() #3
  %20 = zext i32 %19 to i64
  store i64 %20, ptr getelementptr inbounds (%struct._php_basic_globals, ptr @basic_globals, i64 0, i32 13), align 8
  %21 = tail call i32 @getgid() #3
  %22 = zext i32 %21 to i64
  store i64 %22, ptr getelementptr inbounds (%struct._php_basic_globals, ptr @basic_globals, i64 0, i32 14), align 8
  br label %23

23:                                               ; preds = %7, %18, %0
  ret void
}